; Function Attrs: nounwind sspstrong uwtable
define dso_local zeroext i1 @visit_type_q_obj_SHUTDOWN_arg_members(ptr noundef %v, ptr noundef %obj, ptr noundef %errp) local_unnamed_addr #0 {
entry:
  %value.i = alloca i32, align 4
  %call = tail call zeroext i1 @visit_type_bool(ptr noundef %v, ptr noundef nonnull @.str.5, ptr noundef %obj, ptr noundef %errp) #5
  br i1 %call, label %if.end, label %return

if.end:                                           ; preds = %entry
  %reason = getelementptr inbounds nuw i8, ptr %obj, i64 4
  call void @llvm.lifetime.start.p0(i64 4, ptr nonnull %value.i)
  %0 = load i32, ptr %reason, align 4
  store i32 %0, ptr %value.i, align 4
  %call.i = call zeroext i1 @visit_type_enum(ptr noundef %v, ptr noundef nonnull @.str.6, ptr noundef nonnull %value.i, ptr noundef nonnull @ShutdownCause_lookup, ptr noundef %errp) #5
  %1 = load i32, ptr %value.i, align 4
  store i32 %1, ptr %reason, align 4
  call void @llvm.lifetime.end.p0(i64 4, ptr nonnull %value.i)
  br label %return

return:                                           ; preds = %if.end, %entry
  %retval.0 = phi i1 [ false, %entry ], [ %call.i, %if.end ]
  ret i1 %retval.0
}